; Function Attrs: mustprogress nounwind uwtable
define dso_local void @_ZN4llvm13SimpleDDGNodeD2Ev(ptr noundef nonnull align 8 dereferenceable(88) %0) unnamed_addr #0 align 2 {
  store ptr getelementptr inbounds inrange(-16, 16) (i8, ptr @_ZTVN4llvm13SimpleDDGNodeE, i64 16), ptr %0, align 8
  %2 = getelementptr inbounds nuw i8, ptr %0, i64 56
  %3 = tail call noundef i64 @_ZNK4llvm15SmallVectorBaseIjE4sizeEv(ptr noundef nonnull align 8 dereferenceable(16) %2) #23
  %4 = getelementptr inbounds i8, ptr %0, i64 64
  store i32 0, ptr %4, align 8
  %5 = tail call noundef i64 @_ZNK4llvm15SmallVectorBaseIjE4sizeEv(ptr noundef nonnull align 8 dereferenceable(16) %2) #23
  %6 = load ptr, ptr %2, align 8
  %7 = getelementptr inbounds i8, ptr %0, i64 72
  %8 = icmp eq ptr %6, %7
  br i1 %8, label %_ZN4llvm11SmallVectorIPNS_11InstructionELj2EED2Ev.exit, label %9

9:                                                ; preds = %1
  tail call void @free(ptr noundef %6) #23
  br label %_ZN4llvm11SmallVectorIPNS_11InstructionELj2EED2Ev.exit

_ZN4llvm11SmallVectorIPNS_11InstructionELj2EED2Ev.exit: ; preds = %1, %9
  %10 = getelementptr inbounds i8, ptr %0, i64 32
  %11 = tail call noundef i64 @_ZNK4llvm15SmallVectorBaseIjE4sizeEv(ptr noundef nonnull align 8 dereferenceable(16) %10) #23
  %12 = load ptr, ptr %10, align 8
  %13 = getelementptr inbounds i8, ptr %0, i64 48
  %14 = icmp eq ptr %12, %13
  br i1 %14, label %_ZN4llvm7DDGNodeD2Ev.exit, label %15

15:                                               ; preds = %_ZN4llvm11SmallVectorIPNS_11InstructionELj2EED2Ev.exit
  tail call void @free(ptr noundef %12) #23
  br label %_ZN4llvm7DDGNodeD2Ev.exit

_ZN4llvm7DDGNodeD2Ev.exit:                        ; preds = %_ZN4llvm11SmallVectorIPNS_11InstructionELj2EED2Ev.exit, %15
  %16 = getelementptr inbounds i8, ptr %0, i64 8
  %17 = load ptr, ptr %16, align 8
  %18 = getelementptr inbounds i8, ptr %0, i64 24
  %19 = load i32, ptr %18, align 8
  %20 = zext i32 %19 to i64
  %21 = shl nuw nsw i64 %20, 3
  tail call void @_ZN4llvm17deallocate_bufferEPvmm(ptr noundef %17, i64 noundef %21, i64 noundef 8) #23
  ret void
}